target datalayout = "e-m:e-p270:32:32-p271:32:32-p272:64:64-i64:64-i128:128-f80:128-n8:16:32:64-S128"
target triple = "x86_64-pc-linux-gnu"

@abandoned_readers = internal global i64 0, align 64

; Function Attrs: inlinehint nounwind uwtable
define internal void @mi_atomic_yield() #2 {
  call void @llvm.x86.sse2.pause()
  ret void
}

; Function Attrs: nounwind uwtable
define hidden void @_mi_abandoned_await_readers() #0 {
  %1 = alloca i64, align 8
  %2 = alloca i64, align 8
  call void @llvm.lifetime.start.p0(i64 8, ptr %1) #7
  br label %3

3:                                                ; preds = %10, %0
  %4 = load atomic i64, ptr @abandoned_readers acquire, align 64
  store i64 %4, ptr %2, align 8
  %5 = load i64, ptr %2, align 8, !tbaa !8
  store i64 %5, ptr %1, align 8, !tbaa !8
  %6 = load i64, ptr %1, align 8, !tbaa !8
  %7 = icmp ne i64 %6, 0
  br i1 %7, label %8, label %9

8:                                                ; preds = %3
  call void @mi_atomic_yield()
  br label %9

9:                                                ; preds = %8, %3
  br label %10

10:                                               ; preds = %9
  %11 = load i64, ptr %1, align 8, !tbaa !8
  %12 = icmp ne i64 %11, 0
  br i1 %12, label %3, label %13, !llvm.loop !52

13:                                               ; preds = %10
  call void @llvm.lifetime.end.p0(i64 8, ptr %1) #7
  ret void
}