; Function Attrs: nounwind uwtable
define hidden void @_mi_abandoned_await_readers() local_unnamed_addr #5 {
  %1 = load atomic i64, ptr @abandoned_readers acquire, align 64
  %.not3 = icmp eq i64 %1, 0
  br i1 %.not3, label %.critedge, label %.lr.ph

.lr.ph:                                           ; preds = %0, %.lr.ph
  tail call void @llvm.x86.sse2.pause()
  %2 = load atomic i64, ptr @abandoned_readers acquire, align 64
  %.not = icmp eq i64 %2, 0
  br i1 %.not, label %.critedge, label %.lr.ph, !llvm.loop !55

.critedge:                                        ; preds = %.lr.ph, %0
  ret void
}